target datalayout = "e-m:e-p270:32:32-p271:32:32-p272:64:64-i64:64-i128:128-f80:128-n8:16:32:64-S128"
target triple = "x86_64-unknown-linux-gnu"

%"class.rocksdb::(anonymous namespace)::HashLinkListRepFactory" = type { %"class.rocksdb::MemTableRepFactory", %"struct.rocksdb::(anonymous namespace)::HashLinkListRepOptions" }
%"class.rocksdb::MemTableRepFactory" = type { %"class.rocksdb::Customizable" }
%"class.rocksdb::Customizable" = type { %"class.rocksdb::Configurable" }
%"class.rocksdb::Configurable" = type { ptr, %"class.std::vector.19" }
%"class.std::vector.19" = type { %"struct.std::_Vector_base.20" }
%"struct.std::_Vector_base.20" = type { %"struct.std::_Vector_base<rocksdb::Configurable::RegisteredOptions, std::allocator<rocksdb::Configurable::RegisteredOptions>>::_Vector_impl" }
%"struct.std::_Vector_base<rocksdb::Configurable::RegisteredOptions, std::allocator<rocksdb::Configurable::RegisteredOptions>>::_Vector_impl" = type { %"struct.std::_Vector_base<rocksdb::Configurable::RegisteredOptions, std::allocator<rocksdb::Configurable::RegisteredOptions>>::_Vector_impl_data" }
%"struct.std::_Vector_base<rocksdb::Configurable::RegisteredOptions, std::allocator<rocksdb::Configurable::RegisteredOptions>>::_Vector_impl_data" = type { ptr, ptr, ptr }
%"struct.rocksdb::(anonymous namespace)::HashLinkListRepOptions" = type { i64, i32, i64, i32, i8 }
%"class.rocksdb::(anonymous namespace)::HashLinkListRep" = type <{ %"class.rocksdb::MemTableRep", i64, ptr, i32, [4 x i8], ptr, ptr, ptr, i32, i8, [3 x i8] }>
%"class.rocksdb::MemTableRep" = type { ptr, ptr }
%"struct.std::atomic" = type { %"struct.std::__atomic_base" }
%"struct.std::__atomic_base" = type { ptr }

@_ZTVN7rocksdb11MemTableRepE = external unnamed_addr constant { [25 x ptr] }, align 8

; Function Attrs: noreturn nounwind uwtable
define linkonce_odr hidden void @__clang_call_terminate(ptr noundef %0) #11 comdat {
  %2 = call ptr @__cxa_begin_catch(ptr %0) #3
  call void @_ZSt9terminatev() #15
  unreachable
}

; Function Attrs: mustprogress nounwind uwtable
define linkonce_odr noundef i32 @_ZStanSt12memory_orderSt23__memory_order_modifier(i32 noundef %__m, i32 noundef %__mod) #1 comdat {
entry:
  %__m.addr = alloca i32, align 4
  %__mod.addr = alloca i32, align 4
  store i32 %__m, ptr %__m.addr, align 4
  store i32 %__mod, ptr %__mod.addr, align 4
  %0 = load i32, ptr %__m.addr, align 4
  %1 = load i32, ptr %__mod.addr, align 4
  %and = and i32 %0, %1
  ret i32 %and
}

; Function Attrs: mustprogress nounwind uwtable
define linkonce_odr void @_ZN7rocksdb11MemTableRepD2Ev(ptr noundef nonnull align 8 dereferenceable(16) %this) unnamed_addr #1 comdat align 2 {
entry:
  %this.addr = alloca ptr, align 8
  store ptr %this, ptr %this.addr, align 8
  ret void
}

; Function Attrs: mustprogress nounwind uwtable
define linkonce_odr void @_ZNSt6atomicIPvE5storeES0_St12memory_order(ptr noundef nonnull align 8 dereferenceable(8) %this, ptr noundef %__p, i32 noundef %__m) #1 comdat align 2 personality ptr @__gxx_personality_v0 {
entry:
  %this.addr.i = alloca ptr, align 8
  %__p.addr.i = alloca ptr, align 8
  %__m.addr.i = alloca i32, align 4
  %__b.i = alloca i32, align 4
  %.atomictmp.i = alloca ptr, align 8
  %this.addr = alloca ptr, align 8
  %__p.addr = alloca ptr, align 8
  %__m.addr = alloca i32, align 4
  store ptr %this, ptr %this.addr, align 8
  store ptr %__p, ptr %__p.addr, align 8
  store i32 %__m, ptr %__m.addr, align 4
  %this1 = load ptr, ptr %this.addr, align 8
  %_M_b = getelementptr inbounds %"struct.std::atomic", ptr %this1, i32 0, i32 0
  %0 = load ptr, ptr %__p.addr, align 8
  %1 = load i32, ptr %__m.addr, align 4
  store ptr %_M_b, ptr %this.addr.i, align 8
  store ptr %0, ptr %__p.addr.i, align 8
  store i32 %1, ptr %__m.addr.i, align 4
  %this1.i = load ptr, ptr %this.addr.i, align 8
  %2 = load i32, ptr %__m.addr.i, align 4
  %call.i = invoke noundef i32 @_ZStanSt12memory_orderSt23__memory_order_modifier(i32 noundef %2, i32 noundef 65535)
          to label %invoke.cont.i unwind label %terminate.lpad.i

invoke.cont.i:                                    ; preds = %entry
  store i32 %call.i, ptr %__b.i, align 4
  %3 = load i32, ptr %__m.addr.i, align 4
  %4 = load ptr, ptr %__p.addr.i, align 8
  store ptr %4, ptr %.atomictmp.i, align 8
  switch i32 %3, label %monotonic.i [
    i32 3, label %release.i
    i32 5, label %seqcst.i
  ]

monotonic.i:                                      ; preds = %invoke.cont.i
  %5 = load i64, ptr %.atomictmp.i, align 8
  store atomic i64 %5, ptr %this1.i monotonic, align 8
  br label %_ZNSt13__atomic_baseIPvE5storeES0_St12memory_order.exit

release.i:                                        ; preds = %invoke.cont.i
  %6 = load i64, ptr %.atomictmp.i, align 8
  store atomic i64 %6, ptr %this1.i release, align 8
  br label %_ZNSt13__atomic_baseIPvE5storeES0_St12memory_order.exit

seqcst.i:                                         ; preds = %invoke.cont.i
  %7 = load i64, ptr %.atomictmp.i, align 8
  store atomic i64 %7, ptr %this1.i seq_cst, align 8
  br label %_ZNSt13__atomic_baseIPvE5storeES0_St12memory_order.exit

terminate.lpad.i:                                 ; preds = %entry
  %8 = landingpad { ptr, i32 }
          catch ptr null
  %9 = extractvalue { ptr, i32 } %8, 0
  call void @__clang_call_terminate(ptr %9) #15
  unreachable

_ZNSt13__atomic_baseIPvE5storeES0_St12memory_order.exit: ; preds = %seqcst.i, %release.i, %monotonic.i
  ret void
}

; Function Attrs: mustprogress nounwind uwtable
define linkonce_odr noundef nonnull align 4 dereferenceable(4) ptr @_ZSt3maxIjERKT_S2_S2_(ptr noundef nonnull align 4 dereferenceable(4) %__a, ptr noundef nonnull align 4 dereferenceable(4) %__b) #1 comdat {
entry:
  %retval = alloca ptr, align 8
  %__a.addr = alloca ptr, align 8
  %__b.addr = alloca ptr, align 8
  store ptr %__a, ptr %__a.addr, align 8
  store ptr %__b, ptr %__b.addr, align 8
  %0 = load ptr, ptr %__a.addr, align 8
  %1 = load i32, ptr %0, align 4
  %2 = load ptr, ptr %__b.addr, align 8
  %3 = load i32, ptr %2, align 4
  %cmp = icmp ult i32 %1, %3
  br i1 %cmp, label %if.then, label %if.end

if.then:                                          ; preds = %entry
  %4 = load ptr, ptr %__b.addr, align 8
  store ptr %4, ptr %retval, align 8
  br label %return

if.end:                                           ; preds = %entry
  %5 = load ptr, ptr %__a.addr, align 8
  store ptr %5, ptr %retval, align 8
  br label %return

return:                                           ; preds = %if.end, %if.then
  %6 = load ptr, ptr %retval, align 8
  ret ptr %6
}

; Function Attrs: mustprogress nounwind uwtable
define linkonce_odr void @_ZN7rocksdb11MemTableRepC2EPNS_9AllocatorE(ptr noundef nonnull align 8 dereferenceable(16) %this, ptr noundef %allocator) unnamed_addr #1 comdat align 2 {
entry:
  %this.addr = alloca ptr, align 8
  %allocator.addr = alloca ptr, align 8
  store ptr %this, ptr %this.addr, align 8
  store ptr %allocator, ptr %allocator.addr, align 8
  %this1 = load ptr, ptr %this.addr, align 8
  store ptr getelementptr inbounds ({ [25 x ptr] }, ptr @_ZTVN7rocksdb11MemTableRepE, i32 0, i32 0, i32 2), ptr %this1, align 8
  %allocator_ = getelementptr inbounds %"class.rocksdb::MemTableRep", ptr %this1, i32 0, i32 1
  %0 = load ptr, ptr %allocator.addr, align 8
  store ptr %0, ptr %allocator_, align 8
  ret void
}

; Function Attrs: mustprogress uwtable
define internal void @_ZN7rocksdb12_GLOBAL__N_115HashLinkListRepC2ERKNS_11MemTableRep13KeyComparatorEPNS_9AllocatorEPKNS_14SliceTransformEmjmPNS_6LoggerEib(ptr noundef nonnull align 8 dereferenceable(69) %this, ptr noundef nonnull align 8 dereferenceable(8) %compare, ptr noundef %allocator, ptr noundef %transform, i64 noundef %bucket_size, i32 noundef %threshold_use_skiplist, i64 noundef %huge_page_tlb_size, ptr noundef %logger, i32 noundef %bucket_entries_logging_threshold, i1 noundef zeroext %if_log_bucket_dist_when_flash) unnamed_addr #0 align 2 personality ptr @__gxx_personality_v0 {
entry:
  %this.addr = alloca ptr, align 8
  %compare.addr = alloca ptr, align 8
  %allocator.addr = alloca ptr, align 8
  %transform.addr = alloca ptr, align 8
  %bucket_size.addr = alloca i64, align 8
  %threshold_use_skiplist.addr = alloca i32, align 4
  %huge_page_tlb_size.addr = alloca i64, align 8
  %logger.addr = alloca ptr, align 8
  %bucket_entries_logging_threshold.addr = alloca i32, align 4
  %if_log_bucket_dist_when_flash.addr = alloca i8, align 1
  %ref.tmp = alloca i32, align 4
  %exn.slot = alloca ptr, align 8
  %ehselector.slot = alloca i32, align 4
  %mem = alloca ptr, align 8
  %i = alloca i64, align 8
  store ptr %this, ptr %this.addr, align 8
  store ptr %compare, ptr %compare.addr, align 8
  store ptr %allocator, ptr %allocator.addr, align 8
  store ptr %transform, ptr %transform.addr, align 8
  store i64 %bucket_size, ptr %bucket_size.addr, align 8
  store i32 %threshold_use_skiplist, ptr %threshold_use_skiplist.addr, align 4
  store i64 %huge_page_tlb_size, ptr %huge_page_tlb_size.addr, align 8
  store ptr %logger, ptr %logger.addr, align 8
  store i32 %bucket_entries_logging_threshold, ptr %bucket_entries_logging_threshold.addr, align 4
  %frombool = zext i1 %if_log_bucket_dist_when_flash to i8
  store i8 %frombool, ptr %if_log_bucket_dist_when_flash.addr, align 1
  %this1 = load ptr, ptr %this.addr, align 8
  %0 = load ptr, ptr %allocator.addr, align 8
  call void @_ZN7rocksdb11MemTableRepC2EPNS_9AllocatorE(ptr noundef nonnull align 8 dereferenceable(16) %this1, ptr noundef %0)
  store ptr getelementptr inbounds ({ [25 x ptr] }, ptr @_ZTVN7rocksdb12_GLOBAL__N_115HashLinkListRepE, i32 0, i32 0, i32 2), ptr %this1, align 8
  %bucket_size_ = getelementptr inbounds %"class.rocksdb::(anonymous namespace)::HashLinkListRep", ptr %this1, i32 0, i32 1
  %1 = load i64, ptr %bucket_size.addr, align 8
  store i64 %1, ptr %bucket_size_, align 8
  %threshold_use_skiplist_ = getelementptr inbounds %"class.rocksdb::(anonymous namespace)::HashLinkListRep", ptr %this1, i32 0, i32 3
  store i32 3, ptr %ref.tmp, align 4
  %call = invoke noundef nonnull align 4 dereferenceable(4) ptr @_ZSt3maxIjERKT_S2_S2_(ptr noundef nonnull align 4 dereferenceable(4) %threshold_use_skiplist.addr, ptr noundef nonnull align 4 dereferenceable(4) %ref.tmp)
          to label %invoke.cont unwind label %lpad

invoke.cont:                                      ; preds = %entry
  %2 = load i32, ptr %call, align 4
  store i32 %2, ptr %threshold_use_skiplist_, align 8
  %transform_ = getelementptr inbounds %"class.rocksdb::(anonymous namespace)::HashLinkListRep", ptr %this1, i32 0, i32 5
  %3 = load ptr, ptr %transform.addr, align 8
  store ptr %3, ptr %transform_, align 8
  %compare_ = getelementptr inbounds %"class.rocksdb::(anonymous namespace)::HashLinkListRep", ptr %this1, i32 0, i32 6
  %4 = load ptr, ptr %compare.addr, align 8
  store ptr %4, ptr %compare_, align 8
  %logger_ = getelementptr inbounds %"class.rocksdb::(anonymous namespace)::HashLinkListRep", ptr %this1, i32 0, i32 7
  %5 = load ptr, ptr %logger.addr, align 8
  store ptr %5, ptr %logger_, align 8
  %bucket_entries_logging_threshold_ = getelementptr inbounds %"class.rocksdb::(anonymous namespace)::HashLinkListRep", ptr %this1, i32 0, i32 8
  %6 = load i32, ptr %bucket_entries_logging_threshold.addr, align 4
  store i32 %6, ptr %bucket_entries_logging_threshold_, align 8
  %if_log_bucket_dist_when_flash_ = getelementptr inbounds %"class.rocksdb::(anonymous namespace)::HashLinkListRep", ptr %this1, i32 0, i32 9
  %7 = load i8, ptr %if_log_bucket_dist_when_flash.addr, align 1
  %tobool = trunc i8 %7 to i1
  %frombool2 = zext i1 %tobool to i8
  store i8 %frombool2, ptr %if_log_bucket_dist_when_flash_, align 4
  %allocator_ = getelementptr inbounds %"class.rocksdb::MemTableRep", ptr %this1, i32 0, i32 1
  %8 = load ptr, ptr %allocator_, align 8
  %9 = load i64, ptr %bucket_size.addr, align 8
  %mul = mul i64 8, %9
  %10 = load i64, ptr %huge_page_tlb_size.addr, align 8
  %11 = load ptr, ptr %logger.addr, align 8
  %vtable = load ptr, ptr %8, align 8
  %vfn = getelementptr inbounds ptr, ptr %vtable, i64 3
  %12 = load ptr, ptr %vfn, align 8
  %call4 = invoke noundef ptr %12(ptr noundef nonnull align 8 dereferenceable(8) %8, i64 noundef %mul, i64 noundef %10, ptr noundef %11)
          to label %invoke.cont3 unwind label %lpad

invoke.cont3:                                     ; preds = %invoke.cont
  store ptr %call4, ptr %mem, align 8
  %13 = load ptr, ptr %mem, align 8
  %buckets_ = getelementptr inbounds %"class.rocksdb::(anonymous namespace)::HashLinkListRep", ptr %this1, i32 0, i32 2
  store ptr %13, ptr %buckets_, align 8
  store i64 0, ptr %i, align 8
  br label %for.cond

for.cond:                                         ; preds = %for.inc, %invoke.cont3
  %14 = load i64, ptr %i, align 8
  %bucket_size_5 = getelementptr inbounds %"class.rocksdb::(anonymous namespace)::HashLinkListRep", ptr %this1, i32 0, i32 1
  %15 = load i64, ptr %bucket_size_5, align 8
  %cmp = icmp ult i64 %14, %15
  br i1 %cmp, label %for.body, label %for.end

for.body:                                         ; preds = %for.cond
  %buckets_6 = getelementptr inbounds %"class.rocksdb::(anonymous namespace)::HashLinkListRep", ptr %this1, i32 0, i32 2
  %16 = load ptr, ptr %buckets_6, align 8
  %17 = load i64, ptr %i, align 8
  %arrayidx = getelementptr inbounds %"struct.std::atomic", ptr %16, i64 %17
  call void @_ZNSt6atomicIPvE5storeES0_St12memory_order(ptr noundef nonnull align 8 dereferenceable(8) %arrayidx, ptr noundef null, i32 noundef 0) #3
  br label %for.inc

for.inc:                                          ; preds = %for.body
  %18 = load i64, ptr %i, align 8
  %inc = add i64 %18, 1
  store i64 %inc, ptr %i, align 8
  br label %for.cond, !llvm.loop !7

lpad:                                             ; preds = %invoke.cont, %entry
  %19 = landingpad { ptr, i32 }
          cleanup
  %20 = extractvalue { ptr, i32 } %19, 0
  store ptr %20, ptr %exn.slot, align 8
  %21 = extractvalue { ptr, i32 } %19, 1
  store i32 %21, ptr %ehselector.slot, align 4
  call void @_ZN7rocksdb11MemTableRepD2Ev(ptr noundef nonnull align 8 dereferenceable(16) %this1) #3
  br label %eh.resume

for.end:                                          ; preds = %for.cond
  ret void

eh.resume:                                        ; preds = %lpad
  %exn = load ptr, ptr %exn.slot, align 8
  %sel = load i32, ptr %ehselector.slot, align 4
  %lpad.val = insertvalue { ptr, i32 } poison, ptr %exn, 0
  %lpad.val7 = insertvalue { ptr, i32 } %lpad.val, i32 %sel, 1
  resume { ptr, i32 } %lpad.val7
}

; Function Attrs: mustprogress uwtable
define internal noundef ptr @_ZN7rocksdb12_GLOBAL__N_122HashLinkListRepFactory17CreateMemTableRepERKNS_11MemTableRep13KeyComparatorEPNS_9AllocatorEPKNS_14SliceTransformEPNS_6LoggerE(ptr noundef nonnull align 8 dereferenceable(64) %this, ptr noundef nonnull align 8 dereferenceable(8) %compare, ptr noundef %allocator, ptr noundef %transform, ptr noundef %logger) unnamed_addr #0 align 2 personality ptr @__gxx_personality_v0 {
entry:
  %this.addr = alloca ptr, align 8
  %compare.addr = alloca ptr, align 8
  %allocator.addr = alloca ptr, align 8
  %transform.addr = alloca ptr, align 8
  %logger.addr = alloca ptr, align 8
  %exn.slot = alloca ptr, align 8
  %ehselector.slot = alloca i32, align 4
  store ptr %this, ptr %this.addr, align 8
  store ptr %compare, ptr %compare.addr, align 8
  store ptr %allocator, ptr %allocator.addr, align 8
  store ptr %transform, ptr %transform.addr, align 8
  store ptr %logger, ptr %logger.addr, align 8
  %this1 = load ptr, ptr %this.addr, align 8
  %call = call noalias noundef nonnull ptr @_Znwm(i64 noundef 72) #17
  %0 = load ptr, ptr %compare.addr, align 8
  %1 = load ptr, ptr %allocator.addr, align 8
  %2 = load ptr, ptr %transform.addr, align 8
  %options_ = getelementptr inbounds %"class.rocksdb::(anonymous namespace)::HashLinkListRepFactory", ptr %this1, i32 0, i32 1
  %bucket_count = getelementptr inbounds %"struct.rocksdb::(anonymous namespace)::HashLinkListRepOptions", ptr %options_, i32 0, i32 0
  %3 = load i64, ptr %bucket_count, align 8
  %options_2 = getelementptr inbounds %"class.rocksdb::(anonymous namespace)::HashLinkListRepFactory", ptr %this1, i32 0, i32 1
  %threshold_use_skiplist = getelementptr inbounds %"struct.rocksdb::(anonymous namespace)::HashLinkListRepOptions", ptr %options_2, i32 0, i32 1
  %4 = load i32, ptr %threshold_use_skiplist, align 8
  %options_3 = getelementptr inbounds %"class.rocksdb::(anonymous namespace)::HashLinkListRepFactory", ptr %this1, i32 0, i32 1
  %huge_page_tlb_size = getelementptr inbounds %"struct.rocksdb::(anonymous namespace)::HashLinkListRepOptions", ptr %options_3, i32 0, i32 2
  %5 = load i64, ptr %huge_page_tlb_size, align 8
  %6 = load ptr, ptr %logger.addr, align 8
  %options_4 = getelementptr inbounds %"class.rocksdb::(anonymous namespace)::HashLinkListRepFactory", ptr %this1, i32 0, i32 1
  %bucket_entries_logging_threshold = getelementptr inbounds %"struct.rocksdb::(anonymous namespace)::HashLinkListRepOptions", ptr %options_4, i32 0, i32 3
  %7 = load i32, ptr %bucket_entries_logging_threshold, align 8
  %options_5 = getelementptr inbounds %"class.rocksdb::(anonymous namespace)::HashLinkListRepFactory", ptr %this1, i32 0, i32 1
  %if_log_bucket_dist_when_flash = getelementptr inbounds %"struct.rocksdb::(anonymous namespace)::HashLinkListRepOptions", ptr %options_5, i32 0, i32 4
  %8 = load i8, ptr %if_log_bucket_dist_when_flash, align 4
  %tobool = trunc i8 %8 to i1
  invoke void @_ZN7rocksdb12_GLOBAL__N_115HashLinkListRepC2ERKNS_11MemTableRep13KeyComparatorEPNS_9AllocatorEPKNS_14SliceTransformEmjmPNS_6LoggerEib(ptr noundef nonnull align 8 dereferenceable(69) %call, ptr noundef nonnull align 8 dereferenceable(8) %0, ptr noundef %1, ptr noundef %2, i64 noundef %3, i32 noundef %4, i64 noundef %5, ptr noundef %6, i32 noundef %7, i1 noundef zeroext %tobool)
          to label %invoke.cont unwind label %lpad

invoke.cont:                                      ; preds = %entry
  ret ptr %call

lpad:                                             ; preds = %entry
  %9 = landingpad { ptr, i32 }
          cleanup
  %10 = extractvalue { ptr, i32 } %9, 0
  store ptr %10, ptr %exn.slot, align 8
  %11 = extractvalue { ptr, i32 } %9, 1
  store i32 %11, ptr %ehselector.slot, align 4
  call void @_ZdlPv(ptr noundef %call) #18
  br label %eh.resume

eh.resume:                                        ; preds = %lpad
  %exn = load ptr, ptr %exn.slot, align 8
  %sel = load i32, ptr %ehselector.slot, align 4
  %lpad.val = insertvalue { ptr, i32 } poison, ptr %exn, 0
  %lpad.val6 = insertvalue { ptr, i32 } %lpad.val, i32 %sel, 1
  resume { ptr, i32 } %lpad.val6
}