; Function Attrs: mustprogress uwtable
define internal noundef ptr @_ZN7rocksdb12_GLOBAL__N_122HashLinkListRepFactory17CreateMemTableRepERKNS_11MemTableRep13KeyComparatorEPNS_9AllocatorEPKNS_14SliceTransformEPNS_6LoggerE(ptr nocapture noundef nonnull readonly align 8 dereferenceable(64) %this, ptr noundef nonnull align 8 dereferenceable(8) %compare, ptr noundef %allocator, ptr noundef %transform, ptr noundef %logger) unnamed_addr #3 align 2 personality ptr @__gxx_personality_v0 {
entry:
  %call = tail call noalias noundef nonnull dereferenceable(72) ptr @_Znwm(i64 noundef 72) #26
  %options_ = getelementptr inbounds i8, ptr %this, i64 32
  %0 = load i64, ptr %options_, align 8
  %threshold_use_skiplist = getelementptr inbounds i8, ptr %this, i64 40
  %1 = load i32, ptr %threshold_use_skiplist, align 8
  %huge_page_tlb_size = getelementptr inbounds i8, ptr %this, i64 48
  %2 = load i64, ptr %huge_page_tlb_size, align 8
  %bucket_entries_logging_threshold = getelementptr inbounds i8, ptr %this, i64 56
  %3 = load i32, ptr %bucket_entries_logging_threshold, align 8
  %if_log_bucket_dist_when_flash = getelementptr inbounds i8, ptr %this, i64 60
  %4 = load i8, ptr %if_log_bucket_dist_when_flash, align 4
  %5 = and i8 %4, 1
  %allocator_.i.i = getelementptr inbounds i8, ptr %call, i64 8
  store ptr %allocator, ptr %allocator_.i.i, align 8
  store ptr getelementptr inbounds ({ [25 x ptr] }, ptr @_ZTVN7rocksdb12_GLOBAL__N_115HashLinkListRepE, i64 0, i32 0, i64 2), ptr %call, align 8
  %bucket_size_.i = getelementptr inbounds i8, ptr %call, i64 16
  store i64 %0, ptr %bucket_size_.i, align 8
  %threshold_use_skiplist_.i = getelementptr inbounds i8, ptr %call, i64 32
  %.sroa.speculated.i = tail call i32 @llvm.umax.i32(i32 %1, i32 3)
  store i32 %.sroa.speculated.i, ptr %threshold_use_skiplist_.i, align 8
  %transform_.i = getelementptr inbounds i8, ptr %call, i64 40
  store ptr %transform, ptr %transform_.i, align 8
  %compare_.i = getelementptr inbounds i8, ptr %call, i64 48
  store ptr %compare, ptr %compare_.i, align 8
  %logger_.i = getelementptr inbounds i8, ptr %call, i64 56
  store ptr %logger, ptr %logger_.i, align 8
  %bucket_entries_logging_threshold_.i = getelementptr inbounds i8, ptr %call, i64 64
  store i32 %3, ptr %bucket_entries_logging_threshold_.i, align 8
  %if_log_bucket_dist_when_flash_.i = getelementptr inbounds i8, ptr %call, i64 68
  store i8 %5, ptr %if_log_bucket_dist_when_flash_.i, align 4
  %mul.i = shl i64 %0, 3
  %vtable.i = load ptr, ptr %allocator, align 8
  %vfn.i = getelementptr inbounds i8, ptr %vtable.i, i64 24
  %6 = load ptr, ptr %vfn.i, align 8
  %call4.i1 = invoke noundef ptr %6(ptr noundef nonnull align 8 dereferenceable(8) %allocator, i64 noundef %mul.i, i64 noundef %2, ptr noundef %logger)
          to label %call4.i.noexc unwind label %lpad

call4.i.noexc:                                    ; preds = %entry
  %buckets_.i = getelementptr inbounds i8, ptr %call, i64 24
  store ptr %call4.i1, ptr %buckets_.i, align 8
  %cmp7.not.i = icmp eq i64 %0, 0
  br i1 %cmp7.not.i, label %invoke.cont, label %for.body.i

for.body.i:                                       ; preds = %call4.i.noexc, %for.body.i
  %i.08.i = phi i64 [ %inc.i, %for.body.i ], [ 0, %call4.i.noexc ]
  %arrayidx.i = getelementptr inbounds %"struct.std::atomic", ptr %call4.i1, i64 %i.08.i
  store atomic i64 0, ptr %arrayidx.i monotonic, align 8
  %inc.i = add nuw i64 %i.08.i, 1
  %cmp.i = icmp ult i64 %inc.i, %0
  br i1 %cmp.i, label %for.body.i, label %invoke.cont, !llvm.loop !7

invoke.cont:                                      ; preds = %for.body.i, %call4.i.noexc
  ret ptr %call

lpad:                                             ; preds = %entry
  %7 = landingpad { ptr, i32 }
          cleanup
  tail call void @_ZdlPv(ptr noundef nonnull %call) #23
  resume { ptr, i32 } %7
}